target datalayout = "e-m:e-p270:32:32-p271:32:32-p272:64:64-i64:64-i128:128-f80:128-n8:16:32:64-S128"
target triple = "x86_64-pc-linux-gnu"

%struct.cache_set = type { ptr, ptr, ptr, ptr }
%struct.node = type { [2 x i64], ptr, ptr, ptr, ptr, ptr, i32, i32 }

; Function Attrs: nounwind uwtable
define internal i32 @cmp(ptr noundef %0, i64 noundef %1, ptr noundef %2, i64 noundef %3) #0 {
  %5 = alloca i32, align 4
  %6 = alloca ptr, align 8
  %7 = alloca i64, align 8
  %8 = alloca ptr, align 8
  %9 = alloca i64, align 8
  store ptr %0, ptr %6, align 8
  store i64 %1, ptr %7, align 8
  store ptr %2, ptr %8, align 8
  store i64 %3, ptr %9, align 8
  %10 = load ptr, ptr %6, align 8
  %11 = getelementptr inbounds i64, ptr %10, i64 1
  %12 = load i64, ptr %11, align 8
  %13 = load ptr, ptr %8, align 8
  %14 = getelementptr inbounds i64, ptr %13, i64 1
  %15 = load i64, ptr %14, align 8
  %16 = icmp slt i64 %12, %15
  br i1 %16, label %17, label %18

17:                                               ; preds = %4
  store i32 -1, ptr %5, align 4
  br label %56

18:                                               ; preds = %4
  %19 = load ptr, ptr %6, align 8
  %20 = getelementptr inbounds i64, ptr %19, i64 1
  %21 = load i64, ptr %20, align 8
  %22 = load ptr, ptr %8, align 8
  %23 = getelementptr inbounds i64, ptr %22, i64 1
  %24 = load i64, ptr %23, align 8
  %25 = icmp sgt i64 %21, %24
  br i1 %25, label %26, label %27

26:                                               ; preds = %18
  store i32 1, ptr %5, align 4
  br label %56

27:                                               ; preds = %18
  %28 = load ptr, ptr %6, align 8
  %29 = getelementptr inbounds i64, ptr %28, i64 0
  %30 = load i64, ptr %29, align 8
  %31 = load ptr, ptr %8, align 8
  %32 = getelementptr inbounds i64, ptr %31, i64 0
  %33 = load i64, ptr %32, align 8
  %34 = icmp slt i64 %30, %33
  br i1 %34, label %35, label %36

35:                                               ; preds = %27
  store i32 -1, ptr %5, align 4
  br label %56

36:                                               ; preds = %27
  %37 = load ptr, ptr %6, align 8
  %38 = getelementptr inbounds i64, ptr %37, i64 0
  %39 = load i64, ptr %38, align 8
  %40 = load ptr, ptr %8, align 8
  %41 = getelementptr inbounds i64, ptr %40, i64 0
  %42 = load i64, ptr %41, align 8
  %43 = icmp sgt i64 %39, %42
  br i1 %43, label %44, label %45

44:                                               ; preds = %36
  store i32 1, ptr %5, align 4
  br label %56

45:                                               ; preds = %36
  %46 = load i64, ptr %7, align 8
  %47 = load i64, ptr %9, align 8
  %48 = icmp slt i64 %46, %47
  br i1 %48, label %49, label %50

49:                                               ; preds = %45
  store i32 -1, ptr %5, align 4
  br label %56

50:                                               ; preds = %45
  %51 = load i64, ptr %7, align 8
  %52 = load i64, ptr %9, align 8
  %53 = icmp sgt i64 %51, %52
  br i1 %53, label %54, label %55

54:                                               ; preds = %50
  store i32 1, ptr %5, align 4
  br label %56

55:                                               ; preds = %50
  store i32 0, ptr %5, align 4
  br label %56

56:                                               ; preds = %55, %54, %49, %44, %35, %26, %17
  %57 = load i32, ptr %5, align 4
  ret i32 %57
}

; Function Attrs: nounwind uwtable
define internal i32 @splay(ptr noundef %0, i64 noundef %1, ptr noundef %2) #0 {
  %4 = alloca i32, align 4
  %5 = alloca ptr, align 8
  %6 = alloca i64, align 8
  %7 = alloca ptr, align 8
  %8 = alloca %struct.node, align 8
  %9 = alloca ptr, align 8
  %10 = alloca ptr, align 8
  %11 = alloca ptr, align 8
  %12 = alloca ptr, align 8
  %13 = alloca i32, align 4
  %14 = alloca i32, align 4
  store ptr %0, ptr %5, align 8
  store i64 %1, ptr %6, align 8
  store ptr %2, ptr %7, align 8
  call void @llvm.memset.p0.i64(ptr align 8 %8, i8 0, i64 64, i1 false)
  store ptr %8, ptr %9, align 8
  store ptr %8, ptr %10, align 8
  %15 = load ptr, ptr %7, align 8
  %16 = getelementptr inbounds %struct.cache_set, ptr %15, i32 0, i32 1
  %17 = load ptr, ptr %16, align 8
  store ptr %17, ptr %12, align 8
  store i32 0, ptr %14, align 4
  %18 = load ptr, ptr %12, align 8
  %19 = icmp ne ptr %18, null
  br i1 %19, label %21, label %20

20:                                               ; preds = %3
  store i32 0, ptr %4, align 4
  br label %238

21:                                               ; preds = %3
  br label %22

22:                                               ; preds = %172, %21
  %23 = load ptr, ptr %5, align 8
  %24 = load i64, ptr %6, align 8
  %25 = load ptr, ptr %12, align 8
  %26 = getelementptr inbounds %struct.node, ptr %25, i32 0, i32 0
  %27 = getelementptr inbounds [2 x i64], ptr %26, i64 0, i64 0
  %28 = load ptr, ptr %12, align 8
  %29 = getelementptr inbounds %struct.node, ptr %28, i32 0, i32 6
  %30 = load i32, ptr %29, align 8
  %31 = zext i32 %30 to i64
  %32 = call i32 @cmp(ptr noundef %23, i64 noundef %24, ptr noundef %27, i64 noundef %31)
  store i32 %32, ptr %13, align 4
  %33 = load i32, ptr %13, align 4
  %34 = icmp slt i32 %33, 0
  br i1 %34, label %35, label %101

35:                                               ; preds = %22
  %36 = load ptr, ptr %12, align 8
  %37 = getelementptr inbounds %struct.node, ptr %36, i32 0, i32 1
  %38 = load ptr, ptr %37, align 8
  %39 = icmp ne ptr %38, null
  br i1 %39, label %41, label %40

40:                                               ; preds = %35
  br label %173

41:                                               ; preds = %35
  %42 = load ptr, ptr %5, align 8
  %43 = load i64, ptr %6, align 8
  %44 = load ptr, ptr %12, align 8
  %45 = getelementptr inbounds %struct.node, ptr %44, i32 0, i32 1
  %46 = load ptr, ptr %45, align 8
  %47 = getelementptr inbounds %struct.node, ptr %46, i32 0, i32 0
  %48 = getelementptr inbounds [2 x i64], ptr %47, i64 0, i64 0
  %49 = load ptr, ptr %12, align 8
  %50 = getelementptr inbounds %struct.node, ptr %49, i32 0, i32 1
  %51 = load ptr, ptr %50, align 8
  %52 = getelementptr inbounds %struct.node, ptr %51, i32 0, i32 6
  %53 = load i32, ptr %52, align 8
  %54 = zext i32 %53 to i64
  %55 = call i32 @cmp(ptr noundef %42, i64 noundef %43, ptr noundef %48, i64 noundef %54)
  %56 = icmp slt i32 %55, 0
  br i1 %56, label %57, label %90

57:                                               ; preds = %41
  %58 = load ptr, ptr %12, align 8
  %59 = getelementptr inbounds %struct.node, ptr %58, i32 0, i32 1
  %60 = load ptr, ptr %59, align 8
  store ptr %60, ptr %11, align 8
  %61 = load ptr, ptr %11, align 8
  %62 = getelementptr inbounds %struct.node, ptr %61, i32 0, i32 2
  %63 = load ptr, ptr %62, align 8
  %64 = load ptr, ptr %12, align 8
  %65 = getelementptr inbounds %struct.node, ptr %64, i32 0, i32 1
  store ptr %63, ptr %65, align 8
  %66 = load ptr, ptr %11, align 8
  %67 = getelementptr inbounds %struct.node, ptr %66, i32 0, i32 2
  %68 = load ptr, ptr %67, align 8
  %69 = icmp ne ptr %68, null
  br i1 %69, label %70, label %76

70:                                               ; preds = %57
  %71 = load ptr, ptr %12, align 8
  %72 = load ptr, ptr %11, align 8
  %73 = getelementptr inbounds %struct.node, ptr %72, i32 0, i32 2
  %74 = load ptr, ptr %73, align 8
  %75 = getelementptr inbounds %struct.node, ptr %74, i32 0, i32 3
  store ptr %71, ptr %75, align 8
  br label %76

76:                                               ; preds = %70, %57
  %77 = load ptr, ptr %12, align 8
  %78 = load ptr, ptr %11, align 8
  %79 = getelementptr inbounds %struct.node, ptr %78, i32 0, i32 2
  store ptr %77, ptr %79, align 8
  %80 = load ptr, ptr %11, align 8
  %81 = load ptr, ptr %12, align 8
  %82 = getelementptr inbounds %struct.node, ptr %81, i32 0, i32 3
  store ptr %80, ptr %82, align 8
  %83 = load ptr, ptr %11, align 8
  store ptr %83, ptr %12, align 8
  %84 = load ptr, ptr %12, align 8
  %85 = getelementptr inbounds %struct.node, ptr %84, i32 0, i32 1
  %86 = load ptr, ptr %85, align 8
  %87 = icmp ne ptr %86, null
  br i1 %87, label %89, label %88

88:                                               ; preds = %76
  br label %173

89:                                               ; preds = %76
  br label %90

90:                                               ; preds = %89, %41
  %91 = load ptr, ptr %12, align 8
  %92 = load ptr, ptr %9, align 8
  %93 = getelementptr inbounds %struct.node, ptr %92, i32 0, i32 1
  store ptr %91, ptr %93, align 8
  %94 = load ptr, ptr %9, align 8
  %95 = load ptr, ptr %12, align 8
  %96 = getelementptr inbounds %struct.node, ptr %95, i32 0, i32 3
  store ptr %94, ptr %96, align 8
  %97 = load ptr, ptr %12, align 8
  store ptr %97, ptr %9, align 8
  %98 = load ptr, ptr %12, align 8
  %99 = getelementptr inbounds %struct.node, ptr %98, i32 0, i32 1
  %100 = load ptr, ptr %99, align 8
  store ptr %100, ptr %12, align 8
  br label %172

101:                                              ; preds = %22
  %102 = load i32, ptr %13, align 4
  %103 = icmp sgt i32 %102, 0
  br i1 %103, label %104, label %170

104:                                              ; preds = %101
  %105 = load ptr, ptr %12, align 8
  %106 = getelementptr inbounds %struct.node, ptr %105, i32 0, i32 2
  %107 = load ptr, ptr %106, align 8
  %108 = icmp ne ptr %107, null
  br i1 %108, label %110, label %109

109:                                              ; preds = %104
  br label %173

110:                                              ; preds = %104
  %111 = load ptr, ptr %5, align 8
  %112 = load i64, ptr %6, align 8
  %113 = load ptr, ptr %12, align 8
  %114 = getelementptr inbounds %struct.node, ptr %113, i32 0, i32 2
  %115 = load ptr, ptr %114, align 8
  %116 = getelementptr inbounds %struct.node, ptr %115, i32 0, i32 0
  %117 = getelementptr inbounds [2 x i64], ptr %116, i64 0, i64 0
  %118 = load ptr, ptr %12, align 8
  %119 = getelementptr inbounds %struct.node, ptr %118, i32 0, i32 2
  %120 = load ptr, ptr %119, align 8
  %121 = getelementptr inbounds %struct.node, ptr %120, i32 0, i32 6
  %122 = load i32, ptr %121, align 8
  %123 = zext i32 %122 to i64
  %124 = call i32 @cmp(ptr noundef %111, i64 noundef %112, ptr noundef %117, i64 noundef %123)
  %125 = icmp sgt i32 %124, 0
  br i1 %125, label %126, label %159

126:                                              ; preds = %110
  %127 = load ptr, ptr %12, align 8
  %128 = getelementptr inbounds %struct.node, ptr %127, i32 0, i32 2
  %129 = load ptr, ptr %128, align 8
  store ptr %129, ptr %11, align 8
  %130 = load ptr, ptr %11, align 8
  %131 = getelementptr inbounds %struct.node, ptr %130, i32 0, i32 1
  %132 = load ptr, ptr %131, align 8
  %133 = load ptr, ptr %12, align 8
  %134 = getelementptr inbounds %struct.node, ptr %133, i32 0, i32 2
  store ptr %132, ptr %134, align 8
  %135 = load ptr, ptr %11, align 8
  %136 = getelementptr inbounds %struct.node, ptr %135, i32 0, i32 1
  %137 = load ptr, ptr %136, align 8
  %138 = icmp ne ptr %137, null
  br i1 %138, label %139, label %145

139:                                              ; preds = %126
  %140 = load ptr, ptr %12, align 8
  %141 = load ptr, ptr %11, align 8
  %142 = getelementptr inbounds %struct.node, ptr %141, i32 0, i32 1
  %143 = load ptr, ptr %142, align 8
  %144 = getelementptr inbounds %struct.node, ptr %143, i32 0, i32 3
  store ptr %140, ptr %144, align 8
  br label %145

145:                                              ; preds = %139, %126
  %146 = load ptr, ptr %12, align 8
  %147 = load ptr, ptr %11, align 8
  %148 = getelementptr inbounds %struct.node, ptr %147, i32 0, i32 1
  store ptr %146, ptr %148, align 8
  %149 = load ptr, ptr %11, align 8
  %150 = load ptr, ptr %12, align 8
  %151 = getelementptr inbounds %struct.node, ptr %150, i32 0, i32 3
  store ptr %149, ptr %151, align 8
  %152 = load ptr, ptr %11, align 8
  store ptr %152, ptr %12, align 8
  %153 = load ptr, ptr %12, align 8
  %154 = getelementptr inbounds %struct.node, ptr %153, i32 0, i32 2
  %155 = load ptr, ptr %154, align 8
  %156 = icmp ne ptr %155, null
  br i1 %156, label %158, label %157

157:                                              ; preds = %145
  br label %173

158:                                              ; preds = %145
  br label %159

159:                                              ; preds = %158, %110
  %160 = load ptr, ptr %12, align 8
  %161 = load ptr, ptr %10, align 8
  %162 = getelementptr inbounds %struct.node, ptr %161, i32 0, i32 2
  store ptr %160, ptr %162, align 8
  %163 = load ptr, ptr %10, align 8
  %164 = load ptr, ptr %12, align 8
  %165 = getelementptr inbounds %struct.node, ptr %164, i32 0, i32 3
  store ptr %163, ptr %165, align 8
  %166 = load ptr, ptr %12, align 8
  store ptr %166, ptr %10, align 8
  %167 = load ptr, ptr %12, align 8
  %168 = getelementptr inbounds %struct.node, ptr %167, i32 0, i32 2
  %169 = load ptr, ptr %168, align 8
  store ptr %169, ptr %12, align 8
  br label %171

170:                                              ; preds = %101
  store i32 1, ptr %14, align 4
  br label %173

171:                                              ; preds = %159
  br label %172

172:                                              ; preds = %171, %90
  br label %22

173:                                              ; preds = %170, %157, %109, %88, %40
  %174 = load ptr, ptr %12, align 8
  %175 = getelementptr inbounds %struct.node, ptr %174, i32 0, i32 1
  %176 = load ptr, ptr %175, align 8
  %177 = load ptr, ptr %10, align 8
  %178 = getelementptr inbounds %struct.node, ptr %177, i32 0, i32 2
  store ptr %176, ptr %178, align 8
  %179 = load ptr, ptr %12, align 8
  %180 = getelementptr inbounds %struct.node, ptr %179, i32 0, i32 1
  %181 = load ptr, ptr %180, align 8
  %182 = icmp ne ptr %181, null
  br i1 %182, label %183, label %189

183:                                              ; preds = %173
  %184 = load ptr, ptr %10, align 8
  %185 = load ptr, ptr %12, align 8
  %186 = getelementptr inbounds %struct.node, ptr %185, i32 0, i32 1
  %187 = load ptr, ptr %186, align 8
  %188 = getelementptr inbounds %struct.node, ptr %187, i32 0, i32 3
  store ptr %184, ptr %188, align 8
  br label %189

189:                                              ; preds = %183, %173
  %190 = load ptr, ptr %12, align 8
  %191 = getelementptr inbounds %struct.node, ptr %190, i32 0, i32 2
  %192 = load ptr, ptr %191, align 8
  %193 = load ptr, ptr %9, align 8
  %194 = getelementptr inbounds %struct.node, ptr %193, i32 0, i32 1
  store ptr %192, ptr %194, align 8
  %195 = load ptr, ptr %12, align 8
  %196 = getelementptr inbounds %struct.node, ptr %195, i32 0, i32 2
  %197 = load ptr, ptr %196, align 8
  %198 = icmp ne ptr %197, null
  br i1 %198, label %199, label %205

199:                                              ; preds = %189
  %200 = load ptr, ptr %9, align 8
  %201 = load ptr, ptr %12, align 8
  %202 = getelementptr inbounds %struct.node, ptr %201, i32 0, i32 2
  %203 = load ptr, ptr %202, align 8
  %204 = getelementptr inbounds %struct.node, ptr %203, i32 0, i32 3
  store ptr %200, ptr %204, align 8
  br label %205

205:                                              ; preds = %199, %189
  %206 = getelementptr inbounds %struct.node, ptr %8, i32 0, i32 2
  %207 = load ptr, ptr %206, align 8
  %208 = load ptr, ptr %12, align 8
  %209 = getelementptr inbounds %struct.node, ptr %208, i32 0, i32 1
  store ptr %207, ptr %209, align 8
  %210 = getelementptr inbounds %struct.node, ptr %8, i32 0, i32 2
  %211 = load ptr, ptr %210, align 8
  %212 = icmp ne ptr %211, null
  br i1 %212, label %213, label %218

213:                                              ; preds = %205
  %214 = load ptr, ptr %12, align 8
  %215 = getelementptr inbounds %struct.node, ptr %8, i32 0, i32 2
  %216 = load ptr, ptr %215, align 8
  %217 = getelementptr inbounds %struct.node, ptr %216, i32 0, i32 3
  store ptr %214, ptr %217, align 8
  br label %218

218:                                              ; preds = %213, %205
  %219 = getelementptr inbounds %struct.node, ptr %8, i32 0, i32 1
  %220 = load ptr, ptr %219, align 8
  %221 = load ptr, ptr %12, align 8
  %222 = getelementptr inbounds %struct.node, ptr %221, i32 0, i32 2
  store ptr %220, ptr %222, align 8
  %223 = getelementptr inbounds %struct.node, ptr %8, i32 0, i32 1
  %224 = load ptr, ptr %223, align 8
  %225 = icmp ne ptr %224, null
  br i1 %225, label %226, label %231

226:                                              ; preds = %218
  %227 = load ptr, ptr %12, align 8
  %228 = getelementptr inbounds %struct.node, ptr %8, i32 0, i32 1
  %229 = load ptr, ptr %228, align 8
  %230 = getelementptr inbounds %struct.node, ptr %229, i32 0, i32 3
  store ptr %227, ptr %230, align 8
  br label %231

231:                                              ; preds = %226, %218
  %232 = load ptr, ptr %12, align 8
  %233 = getelementptr inbounds %struct.node, ptr %232, i32 0, i32 3
  store ptr null, ptr %233, align 8
  %234 = load ptr, ptr %12, align 8
  %235 = load ptr, ptr %7, align 8
  %236 = getelementptr inbounds %struct.cache_set, ptr %235, i32 0, i32 1
  store ptr %234, ptr %236, align 8
  %237 = load i32, ptr %14, align 4
  store i32 %237, ptr %4, align 4
  br label %238

238:                                              ; preds = %231, %20
  %239 = load i32, ptr %4, align 4
  ret i32 %239
}