; Function Attrs: nofree norecurse nosync nounwind memory(readwrite, inaccessiblemem: none) uwtable
define internal fastcc noundef i32 @splay(ptr nocapture noundef readonly %0, i64 noundef %1, ptr nocapture noundef %2) unnamed_addr #4 {
  %4 = alloca %struct.node, align 8
  call void @llvm.memset.p0.i64(ptr noundef nonnull align 8 dereferenceable(64) %4, i8 0, i64 64, i1 false)
  %5 = getelementptr inbounds i8, ptr %2, i64 8
  %6 = load ptr, ptr %5, align 8
  %.not = icmp eq ptr %6, null
  br i1 %.not, label %113, label %.preheader

.preheader:                                       ; preds = %3
  %7 = getelementptr inbounds i8, ptr %0, i64 8
  br label %8

8:                                                ; preds = %.preheader, %88
  %.076 = phi ptr [ %.177, %88 ], [ %4, %.preheader ]
  %.074 = phi ptr [ %.175, %88 ], [ %4, %.preheader ]
  %.073 = phi ptr [ %.3, %88 ], [ %6, %.preheader ]
  %9 = getelementptr inbounds i8, ptr %.073, i64 56
  %10 = load i32, ptr %9, align 8
  %11 = zext i32 %10 to i64
  %12 = load i64, ptr %7, align 8
  %13 = getelementptr inbounds i8, ptr %.073, i64 8
  %14 = load i64, ptr %13, align 8
  %15 = icmp slt i64 %12, %14
  br i1 %15, label %26, label %16

16:                                               ; preds = %8
  %17 = icmp sgt i64 %12, %14
  br i1 %17, label %cmp.exit.thread108, label %18

18:                                               ; preds = %16
  %19 = load i64, ptr %0, align 8
  %20 = load i64, ptr %.073, align 8
  %21 = icmp slt i64 %19, %20
  br i1 %21, label %26, label %22

22:                                               ; preds = %18
  %23 = icmp sgt i64 %19, %20
  br i1 %23, label %cmp.exit.thread108, label %24

24:                                               ; preds = %22
  %25 = icmp sgt i64 %11, %1
  br i1 %25, label %26, label %cmp.exit

26:                                               ; preds = %8, %18, %24
  %27 = getelementptr inbounds i8, ptr %.073, i64 16
  %28 = load ptr, ptr %27, align 8
  %.not92 = icmp eq ptr %28, null
  br i1 %.not92, label %89, label %29

29:                                               ; preds = %26
  %30 = getelementptr inbounds i8, ptr %28, i64 56
  %31 = load i32, ptr %30, align 8
  %32 = zext i32 %31 to i64
  %33 = getelementptr inbounds i8, ptr %28, i64 8
  %34 = load i64, ptr %33, align 8
  %35 = icmp slt i64 %12, %34
  br i1 %35, label %45, label %36

36:                                               ; preds = %29
  %37 = icmp sgt i64 %12, %34
  br i1 %37, label %cmp.exit101, label %38

38:                                               ; preds = %36
  %39 = load i64, ptr %0, align 8
  %40 = load i64, ptr %28, align 8
  %41 = icmp slt i64 %39, %40
  br i1 %41, label %45, label %42

42:                                               ; preds = %38
  %43 = icmp sle i64 %39, %40
  %44 = icmp sgt i64 %32, %1
  %or.cond116 = select i1 %43, i1 %44, i1 false
  br i1 %or.cond116, label %45, label %cmp.exit101

45:                                               ; preds = %42, %29, %38
  %46 = getelementptr inbounds i8, ptr %28, i64 24
  %47 = load ptr, ptr %46, align 8
  store ptr %47, ptr %27, align 8
  %.not93 = icmp eq ptr %47, null
  br i1 %.not93, label %50, label %48

48:                                               ; preds = %45
  %49 = getelementptr inbounds i8, ptr %47, i64 32
  store ptr %.073, ptr %49, align 8
  br label %50

50:                                               ; preds = %48, %45
  store ptr %.073, ptr %46, align 8
  %51 = getelementptr inbounds i8, ptr %.073, i64 32
  store ptr %28, ptr %51, align 8
  %52 = getelementptr inbounds i8, ptr %28, i64 16
  %53 = load ptr, ptr %52, align 8
  %.not94 = icmp eq ptr %53, null
  br i1 %.not94, label %89, label %cmp.exit101

cmp.exit101:                                      ; preds = %42, %36, %50
  %.1 = phi ptr [ %28, %50 ], [ %.073, %36 ], [ %.073, %42 ]
  %54 = getelementptr inbounds i8, ptr %.076, i64 16
  store ptr %.1, ptr %54, align 8
  %55 = getelementptr inbounds i8, ptr %.1, i64 32
  store ptr %.076, ptr %55, align 8
  %56 = getelementptr inbounds i8, ptr %.1, i64 16
  br label %88

cmp.exit:                                         ; preds = %24
  %.not115 = icmp ult i64 %11, %1
  br i1 %.not115, label %cmp.exit.thread108, label %89

cmp.exit.thread108:                               ; preds = %22, %16, %cmp.exit
  %57 = getelementptr inbounds i8, ptr %.073, i64 24
  %58 = load ptr, ptr %57, align 8
  %.not89 = icmp eq ptr %58, null
  br i1 %.not89, label %89, label %59

59:                                               ; preds = %cmp.exit.thread108
  %60 = getelementptr inbounds i8, ptr %58, i64 56
  %61 = load i32, ptr %60, align 8
  %62 = zext i32 %61 to i64
  %63 = getelementptr inbounds i8, ptr %58, i64 8
  %64 = load i64, ptr %63, align 8
  %65 = icmp slt i64 %12, %64
  br i1 %65, label %cmp.exit104.thread, label %66

66:                                               ; preds = %59
  %67 = icmp sgt i64 %12, %64
  br i1 %67, label %cmp.exit104.thread113, label %68

68:                                               ; preds = %66
  %69 = load i64, ptr %0, align 8
  %70 = load i64, ptr %58, align 8
  %71 = icmp slt i64 %69, %70
  br i1 %71, label %cmp.exit104.thread, label %72

72:                                               ; preds = %68
  %73 = icmp sgt i64 %69, %70
  br i1 %73, label %cmp.exit104.thread113, label %74

74:                                               ; preds = %72
  %75 = icmp sle i64 %62, %1
  %76 = icmp ult i64 %62, %1
  %or.cond = and i1 %75, %76
  br i1 %or.cond, label %cmp.exit104.thread113, label %cmp.exit104.thread

cmp.exit104.thread113:                            ; preds = %74, %72, %66
  %77 = getelementptr inbounds i8, ptr %58, i64 16
  %78 = load ptr, ptr %77, align 8
  store ptr %78, ptr %57, align 8
  %.not90 = icmp eq ptr %78, null
  br i1 %.not90, label %81, label %79

79:                                               ; preds = %cmp.exit104.thread113
  %80 = getelementptr inbounds i8, ptr %78, i64 32
  store ptr %.073, ptr %80, align 8
  br label %81

81:                                               ; preds = %79, %cmp.exit104.thread113
  store ptr %.073, ptr %77, align 8
  %82 = getelementptr inbounds i8, ptr %.073, i64 32
  store ptr %58, ptr %82, align 8
  %83 = getelementptr inbounds i8, ptr %58, i64 24
  %84 = load ptr, ptr %83, align 8
  %.not91 = icmp eq ptr %84, null
  br i1 %.not91, label %89, label %cmp.exit104.thread

cmp.exit104.thread:                               ; preds = %74, %68, %59, %81
  %.2 = phi ptr [ %58, %81 ], [ %.073, %59 ], [ %.073, %68 ], [ %.073, %74 ]
  %85 = getelementptr inbounds i8, ptr %.074, i64 24
  store ptr %.2, ptr %85, align 8
  %86 = getelementptr inbounds i8, ptr %.2, i64 32
  store ptr %.074, ptr %86, align 8
  %87 = getelementptr inbounds i8, ptr %.2, i64 24
  br label %88

88:                                               ; preds = %cmp.exit104.thread, %cmp.exit101
  %.177 = phi ptr [ %.1, %cmp.exit101 ], [ %.076, %cmp.exit104.thread ]
  %.175 = phi ptr [ %.074, %cmp.exit101 ], [ %.2, %cmp.exit104.thread ]
  %.3.in = phi ptr [ %56, %cmp.exit101 ], [ %87, %cmp.exit104.thread ]
  %.3 = load ptr, ptr %.3.in, align 8
  br label %8

89:                                               ; preds = %cmp.exit, %81, %cmp.exit.thread108, %50, %26
  %.4 = phi ptr [ %28, %50 ], [ %.073, %26 ], [ %58, %81 ], [ %.073, %cmp.exit.thread108 ], [ %.073, %cmp.exit ]
  %.0 = phi i32 [ 0, %50 ], [ 0, %26 ], [ 0, %81 ], [ 0, %cmp.exit.thread108 ], [ 1, %cmp.exit ]
  %90 = getelementptr inbounds i8, ptr %.4, i64 16
  %91 = load ptr, ptr %90, align 8
  %92 = getelementptr inbounds i8, ptr %.074, i64 24
  store ptr %91, ptr %92, align 8
  %.not95 = icmp eq ptr %91, null
  br i1 %.not95, label %95, label %93

93:                                               ; preds = %89
  %94 = getelementptr inbounds i8, ptr %91, i64 32
  store ptr %.074, ptr %94, align 8
  br label %95

95:                                               ; preds = %93, %89
  %96 = getelementptr inbounds i8, ptr %.4, i64 24
  %97 = load ptr, ptr %96, align 8
  %98 = getelementptr inbounds i8, ptr %.076, i64 16
  store ptr %97, ptr %98, align 8
  %.not96 = icmp eq ptr %97, null
  br i1 %.not96, label %101, label %99

99:                                               ; preds = %95
  %100 = getelementptr inbounds i8, ptr %97, i64 32
  store ptr %.076, ptr %100, align 8
  br label %101

101:                                              ; preds = %99, %95
  %102 = getelementptr inbounds i8, ptr %4, i64 24
  %103 = load ptr, ptr %102, align 8
  store ptr %103, ptr %90, align 8
  %.not97 = icmp eq ptr %103, null
  br i1 %.not97, label %106, label %104

104:                                              ; preds = %101
  %105 = getelementptr inbounds i8, ptr %103, i64 32
  store ptr %.4, ptr %105, align 8
  br label %106

106:                                              ; preds = %104, %101
  %107 = getelementptr inbounds i8, ptr %4, i64 16
  %108 = load ptr, ptr %107, align 8
  store ptr %108, ptr %96, align 8
  %.not98 = icmp eq ptr %108, null
  br i1 %.not98, label %111, label %109

109:                                              ; preds = %106
  %110 = getelementptr inbounds i8, ptr %108, i64 32
  store ptr %.4, ptr %110, align 8
  br label %111

111:                                              ; preds = %109, %106
  %112 = getelementptr inbounds i8, ptr %.4, i64 32
  store ptr null, ptr %112, align 8
  store ptr %.4, ptr %5, align 8
  br label %113

113:                                              ; preds = %3, %111
  %.072 = phi i32 [ %.0, %111 ], [ 0, %3 ]
  ret i32 %.072
}